; ModuleID = 'source-C-CXX/46/4619.c'
source_filename = "source-C-CXX/46/4619.c"
target datalayout = "e-m:e-p270:32:32-p271:32:32-p272:64:64-i64:64-f80:128-n8:16:32:64-S128"
target triple = "x86_64-pc-linux-gnu"

@.str = private unnamed_addr constant [3 x i8] c"%d\00", align 1

; Function Attrs: nofree norecurse nosync nounwind sspstrong uwtable
define dso_local void @reverse(i32* nocapture %0, i32 %1) local_unnamed_addr #0 {
  %3 = icmp sgt i32 %1, 1
  br i1 %3, label %4, label %17

4:                                                ; preds = %2
  %5 = zext i32 %1 to i64
  %6 = add nsw i64 %5, -1
  br label %7

7:                                                ; preds = %4, %7
  %8 = phi i64 [ 0, %4 ], [ %14, %7 ]
  %9 = phi i64 [ %6, %4 ], [ %15, %7 ]
  %10 = getelementptr inbounds i32, i32* %0, i64 %8
  %11 = load i32, i32* %10, align 4, !tbaa !5
  %12 = getelementptr inbounds i32, i32* %0, i64 %9
  %13 = load i32, i32* %12, align 4, !tbaa !5
  store i32 %13, i32* %10, align 4, !tbaa !5
  store i32 %11, i32* %12, align 4, !tbaa !5
  %14 = add nuw nsw i64 %8, 1
  %15 = add nsw i64 %9, -1
  %16 = icmp slt i64 %14, %15
  br i1 %16, label %7, label %17, !llvm.loop !9

17:                                               ; preds = %7, %2
  ret void
}

; Function Attrs: argmemonly mustprogress nofree nosync nounwind willreturn
declare void @llvm.lifetime.start.p0i8(i64 immarg, i8* nocapture) #1

; Function Attrs: argmemonly mustprogress nofree nosync nounwind willreturn
declare void @llvm.lifetime.end.p0i8(i64 immarg, i8* nocapture) #1

; Function Attrs: nofree nounwind sspstrong uwtable
define dso_local void @main() local_unnamed_addr #2 {
  %1 = alloca i32, align 4
  %2 = bitcast i32* %1 to i8*
  call void @llvm.lifetime.start.p0i8(i64 4, i8* nonnull %2) #6
  %3 = call i32 (i8*, ...) @__isoc99_scanf(i8* getelementptr inbounds ([3 x i8], [3 x i8]* @.str, i64 0, i64 0), i32* nonnull %1)
  %4 = call noalias align 16 dereferenceable_or_null(4) i8* @malloc(i64 4) #6
  %5 = bitcast i8* %4 to i32*
  %6 = load i32, i32* %1, align 4, !tbaa !5
  %7 = icmp sgt i32 %6, 0
  br i1 %7, label %8, label %47

8:                                                ; preds = %0, %8
  %9 = phi i64 [ %12, %8 ], [ 0, %0 ]
  %10 = getelementptr inbounds i32, i32* %5, i64 %9
  %11 = call i32 (i8*, ...) @__isoc99_scanf(i8* getelementptr inbounds ([3 x i8], [3 x i8]* @.str, i64 0, i64 0), i32* %10)
  %12 = add nuw nsw i64 %9, 1
  %13 = load i32, i32* %1, align 4, !tbaa !5
  %14 = sext i32 %13 to i64
  %15 = icmp slt i64 %12, %14
  br i1 %15, label %8, label %16, !llvm.loop !11

16:                                               ; preds = %8
  %17 = icmp sgt i32 %13, 1
  br i1 %17, label %18, label %30

18:                                               ; preds = %16
  %19 = zext i32 %13 to i64
  %20 = add nsw i64 %19, -1
  br label %21

21:                                               ; preds = %21, %18
  %22 = phi i64 [ 0, %18 ], [ %27, %21 ]
  %23 = phi i64 [ %20, %18 ], [ %28, %21 ]
  %24 = getelementptr inbounds i32, i32* %5, i64 %22
  %25 = load i32, i32* %24, align 4, !tbaa !5
  %26 = getelementptr inbounds i32, i32* %5, i64 %23
  store i32 %25, i32* %26, align 4, !tbaa !5
  %27 = add nuw nsw i64 %22, 1
  %28 = add nsw i64 %23, -1
  %29 = icmp slt i64 %27, %28
  br i1 %29, label %21, label %30, !llvm.loop !9

30:                                               ; preds = %21, %16
  %31 = icmp sgt i32 %13, 0
  br i1 %31, label %32, label %47

32:                                               ; preds = %30, %32
  %33 = phi i64 [ %43, %32 ], [ 0, %30 ]
  %34 = getelementptr inbounds i32, i32* %5, i64 %33
  %35 = load i32, i32* %34, align 4, !tbaa !5
  %36 = call i32 (i8*, ...) @printf(i8* nonnull dereferenceable(1) getelementptr inbounds ([3 x i8], [3 x i8]* @.str, i64 0, i64 0), i32 %35)
  %37 = load i32, i32* %1, align 4, !tbaa !5
  %38 = add nsw i32 %37, -1
  %39 = zext i32 %38 to i64
  %40 = icmp eq i64 %33, %39
  %41 = select i1 %40, i32 10, i32 32
  %42 = call i32 @putchar(i32 %41)
  %43 = add nuw nsw i64 %33, 1
  %44 = load i32, i32* %1, align 4, !tbaa !5
  %45 = sext i32 %44 to i64
  %46 = icmp slt i64 %43, %45
  br i1 %46, label %32, label %47, !llvm.loop !12

47:                                               ; preds = %32, %0, %30
  call void @llvm.lifetime.end.p0i8(i64 4, i8* nonnull %2) #6
  ret void
}

; Function Attrs: nofree nounwind
declare noundef i32 @__isoc99_scanf(i8* nocapture noundef readonly, ...) local_unnamed_addr #3

; Function Attrs: inaccessiblememonly mustprogress nofree nounwind willreturn
declare noalias noundef align 16 i8* @malloc(i64 noundef) local_unnamed_addr #4

; Function Attrs: nofree nounwind
declare noundef i32 @printf(i8* nocapture noundef readonly, ...) local_unnamed_addr #3

; Function Attrs: nofree nounwind
declare noundef i32 @putchar(i32 noundef) local_unnamed_addr #5


!llvm.module.flags = !{!0, !1, !2, !3}
!llvm.ident = !{!4}

!0 = !{i32 1, !"wchar_size", i32 4}
!1 = !{i32 7, !"PIC Level", i32 2}
!2 = !{i32 7, !"PIE Level", i32 2}
!3 = !{i32 7, !"uwtable", i32 1}
!4 = !{!"clang version 13.0.0"}
!5 = !{!6, !6, i64 0}
!6 = !{!"int", !7, i64 0}
!7 = !{!"omnipotent char", !8, i64 0}
!8 = !{!"Simple C/C++ TBAA"}
!9 = distinct !{!9, !10}
!10 = !{!"llvm.loop.mustprogress"}
!11 = distinct !{!11, !10}
!12 = distinct !{!12, !10}
